target datalayout = "e-m:e-p270:32:32-p271:32:32-p272:64:64-i64:64-i128:128-f80:128-n8:16:32:64-S128"
target triple = "x86_64-pc-linux-gnu"

%struct.git_hash_algo = type { ptr, i32, i64, i64, i64, ptr, ptr, ptr, ptr, ptr, ptr, ptr, ptr, ptr }
%struct.repository = type { ptr, ptr, ptr, ptr, ptr, %struct.strmap, %struct.strmap, %struct.repo_path_cache, ptr, ptr, ptr, ptr, %struct.repo_settings, ptr, ptr, ptr, ptr, ptr, ptr, i32, i32, i32, ptr, ptr, i32, i32, i8 }
%struct.strmap = type { %struct.hashmap, ptr, i8 }
%struct.hashmap = type { ptr, ptr, ptr, i32, i32, i32, i32, i8 }
%struct.repo_path_cache = type { ptr, ptr, ptr, ptr, ptr, ptr, ptr }
%struct.repo_settings = type { i32, i32, i32, i32, i32, i32, i32, i32, i32, i32, i32, i32, ptr, i32, i32, i32, i32, i32, i32, i32, i64, i64, i64 }
%struct.stat = type { i64, i64, i64, i32, i32, i32, i32, i64, i64, i64, i64, %struct.timespec, %struct.timespec, %struct.timespec, [3 x i64] }
%struct.timespec = type { i64, i64 }

@the_repository = external global ptr, align 8
@.str.13 = private unnamed_addr constant [34 x i8] c"commit-graph chain file too small\00", align 1
@.str.31 = private unnamed_addr constant [1 x i8] zeroinitializer, align 1
@git_gettext_enabled = external global i32, align 4

; Function Attrs: inlinehint nounwind uwtable
define internal ptr @_(ptr noundef %0) #5 {
  %2 = alloca ptr, align 8
  %3 = alloca ptr, align 8
  store ptr %0, ptr %3, align 8, !tbaa !65
  %4 = load ptr, ptr %3, align 8, !tbaa !65
  %5 = load i8, ptr %4, align 1, !tbaa !85
  %6 = icmp ne i8 %5, 0
  br i1 %6, label %8, label %7

7:                                                ; preds = %1
  store ptr @.str.31, ptr %2, align 8
  br label %16

8:                                                ; preds = %1
  %9 = load i32, ptr @git_gettext_enabled, align 4, !tbaa !4
  %10 = icmp ne i32 %9, 0
  br i1 %10, label %13, label %11

11:                                               ; preds = %8
  %12 = load ptr, ptr %3, align 8, !tbaa !65
  store ptr %12, ptr %2, align 8
  br label %16

13:                                               ; preds = %8
  %14 = load ptr, ptr %3, align 8, !tbaa !65
  %15 = call ptr @dcgettext(ptr noundef null, ptr noundef %14, i32 noundef 5) #12
  store ptr %15, ptr %2, align 8
  br label %16

16:                                               ; preds = %13, %11, %7
  %17 = load ptr, ptr %2, align 8
  ret ptr %17
}

; Function Attrs: nounwind uwtable
define dso_local i32 @open_commit_graph_chain(ptr noundef %0, ptr noundef %1, ptr noundef %2) #0 {
  %4 = alloca i32, align 4
  %5 = alloca ptr, align 8
  %6 = alloca ptr, align 8
  %7 = alloca ptr, align 8
  store ptr %0, ptr %5, align 8, !tbaa !65
  store ptr %1, ptr %6, align 8, !tbaa !66
  store ptr %2, ptr %7, align 8, !tbaa !68
  %8 = load ptr, ptr %5, align 8, !tbaa !65
  %9 = call i32 @git_open_cloexec(ptr noundef %8, i32 noundef 0)
  %10 = load ptr, ptr %6, align 8, !tbaa !66
  store i32 %9, ptr %10, align 4, !tbaa !4
  %11 = load ptr, ptr %6, align 8, !tbaa !66
  %12 = load i32, ptr %11, align 4, !tbaa !4
  %13 = icmp slt i32 %12, 0
  br i1 %13, label %14, label %15

14:                                               ; preds = %3
  store i32 0, ptr %4, align 4
  br label %50

15:                                               ; preds = %3
  %16 = load ptr, ptr %6, align 8, !tbaa !66
  %17 = load i32, ptr %16, align 4, !tbaa !4
  %18 = load ptr, ptr %7, align 8, !tbaa !68
  %19 = call i32 @fstat64(i32 noundef %17, ptr noundef %18) #12
  %20 = icmp ne i32 %19, 0
  br i1 %20, label %21, label %25

21:                                               ; preds = %15
  %22 = load ptr, ptr %6, align 8, !tbaa !66
  %23 = load i32, ptr %22, align 4, !tbaa !4
  %24 = call i32 @close(i32 noundef %23)
  store i32 0, ptr %4, align 4
  br label %50

25:                                               ; preds = %15
  %26 = load ptr, ptr %7, align 8, !tbaa !68
  %27 = getelementptr inbounds nuw %struct.stat, ptr %26, i32 0, i32 8
  %28 = load i64, ptr %27, align 8, !tbaa !70
  %29 = load ptr, ptr @the_repository, align 8, !tbaa !8
  %30 = getelementptr inbounds nuw %struct.repository, ptr %29, i32 0, i32 17
  %31 = load ptr, ptr %30, align 8, !tbaa !74
  %32 = getelementptr inbounds nuw %struct.git_hash_algo, ptr %31, i32 0, i32 3
  %33 = load i64, ptr %32, align 8, !tbaa !116
  %34 = icmp ult i64 %28, %33
  br i1 %34, label %35, label %49

35:                                               ; preds = %25
  %36 = load ptr, ptr %6, align 8, !tbaa !66
  %37 = load i32, ptr %36, align 4, !tbaa !4
  %38 = call i32 @close(i32 noundef %37)
  %39 = load ptr, ptr %7, align 8, !tbaa !68
  %40 = getelementptr inbounds nuw %struct.stat, ptr %39, i32 0, i32 8
  %41 = load i64, ptr %40, align 8, !tbaa !70
  %42 = icmp ne i64 %41, 0
  br i1 %42, label %45, label %43

43:                                               ; preds = %35
  %44 = call ptr @__errno_location() #14
  store i32 2, ptr %44, align 4, !tbaa !4
  br label %48

45:                                               ; preds = %35
  %46 = call ptr @_(ptr noundef @.str.13)
  call void (ptr, ...) @warning(ptr noundef %46)
  %47 = call ptr @__errno_location() #14
  store i32 22, ptr %47, align 4, !tbaa !4
  br label %48

48:                                               ; preds = %45, %43
  store i32 0, ptr %4, align 4
  br label %50

49:                                               ; preds = %25
  store i32 1, ptr %4, align 4
  br label %50

50:                                               ; preds = %49, %48, %21, %14
  %51 = load i32, ptr %4, align 4
  ret i32 %51
}