; Function Attrs: nounwind uwtable
define dso_local range(i32 0, 2) i32 @open_commit_graph_chain(ptr noundef %0, ptr noundef captures(none) initializes((0, 4)) %1, ptr noundef captures(none) %2) local_unnamed_addr #0 {
  %4 = tail call i32 @git_open_cloexec(ptr noundef %0, i32 noundef 0) #24
  store i32 %4, ptr %1, align 4, !tbaa !47
  %5 = icmp slt i32 %4, 0
  br i1 %5, label %31, label %6

6:                                                ; preds = %3
  %7 = tail call i32 @fstat64(i32 noundef %4, ptr noundef %2) #24
  %.not = icmp eq i32 %7, 0
  br i1 %.not, label %11, label %8

8:                                                ; preds = %6
  %9 = load i32, ptr %1, align 4, !tbaa !47
  %10 = tail call i32 @close(i32 noundef %9) #24
  br label %31

11:                                               ; preds = %6
  %12 = getelementptr inbounds nuw i8, ptr %2, i64 48
  %13 = load i64, ptr %12, align 8, !tbaa !68
  %14 = load ptr, ptr @the_repository, align 8, !tbaa !4
  %15 = getelementptr inbounds nuw i8, ptr %14, i64 400
  %16 = load ptr, ptr %15, align 8, !tbaa !71
  %17 = getelementptr inbounds nuw i8, ptr %16, i64 24
  %18 = load i64, ptr %17, align 8, !tbaa !107
  %19 = icmp ult i64 %13, %18
  br i1 %19, label %20, label %31

20:                                               ; preds = %11
  %21 = load i32, ptr %1, align 4, !tbaa !47
  %22 = tail call i32 @close(i32 noundef %21) #24
  %23 = load i64, ptr %12, align 8, !tbaa !68
  %.not10 = icmp eq i64 %23, 0
  br i1 %.not10, label %24, label %26

24:                                               ; preds = %20
  %25 = tail call ptr @__errno_location() #27
  store i32 2, ptr %25, align 4, !tbaa !47
  br label %31

26:                                               ; preds = %20
  %27 = load i32, ptr @git_gettext_enabled, align 4, !tbaa !47
  %.not4.i = icmp eq i32 %27, 0
  br i1 %.not4.i, label %_.exit, label %28

28:                                               ; preds = %26
  %29 = tail call ptr @dcgettext(ptr noundef null, ptr noundef nonnull @.str.13, i32 noundef 5) #24
  br label %_.exit

_.exit:                                           ; preds = %26, %28
  %.0.i = phi ptr [ %29, %28 ], [ @.str.13, %26 ]
  tail call void (ptr, ...) @warning(ptr noundef %.0.i) #24
  %30 = tail call ptr @__errno_location() #27
  store i32 22, ptr %30, align 4, !tbaa !47
  br label %31

31:                                               ; preds = %11, %24, %_.exit, %3, %8
  %.0 = phi i32 [ 0, %8 ], [ 0, %3 ], [ 0, %_.exit ], [ 0, %24 ], [ 1, %11 ]
  ret i32 %.0
}